target datalayout = "e-m:e-p270:32:32-p271:32:32-p272:64:64-i64:64-i128:128-f80:128-n8:16:32:64-S128"
target triple = "x86_64-pc-linux-gnu"

%struct.asn1_object_st = type { ptr, ptr, i32, i32, ptr, i32 }

; Function Attrs: nounwind uwtable
define hidden void @ASN1_OBJECT_free(ptr noundef %0) #0 {
  %2 = alloca ptr, align 8
  store ptr %0, ptr %2, align 8, !tbaa !6
  %3 = load ptr, ptr %2, align 8, !tbaa !6
  %4 = icmp eq ptr %3, null
  br i1 %4, label %5, label %6

5:                                                ; preds = %1
  br label %63

6:                                                ; preds = %1
  %7 = load ptr, ptr %2, align 8, !tbaa !6
  %8 = getelementptr inbounds nuw %struct.asn1_object_st, ptr %7, i32 0, i32 5
  %9 = load i32, ptr %8, align 8, !tbaa !33
  %10 = and i32 %9, 4
  %11 = icmp ne i32 %10, 0
  br i1 %11, label %12, label %35

12:                                               ; preds = %6
  %13 = load ptr, ptr %2, align 8, !tbaa !6
  %14 = getelementptr inbounds nuw %struct.asn1_object_st, ptr %13, i32 0, i32 0
  %15 = load ptr, ptr %14, align 8, !tbaa !34
  %16 = icmp ne ptr %15, null
  br i1 %16, label %17, label %21

17:                                               ; preds = %12
  %18 = load ptr, ptr %2, align 8, !tbaa !6
  %19 = getelementptr inbounds nuw %struct.asn1_object_st, ptr %18, i32 0, i32 0
  %20 = load ptr, ptr %19, align 8, !tbaa !34
  call void @free(ptr noundef %20) #7
  br label %21

21:                                               ; preds = %17, %12
  %22 = load ptr, ptr %2, align 8, !tbaa !6
  %23 = getelementptr inbounds nuw %struct.asn1_object_st, ptr %22, i32 0, i32 1
  %24 = load ptr, ptr %23, align 8, !tbaa !35
  %25 = icmp ne ptr %24, null
  br i1 %25, label %26, label %30

26:                                               ; preds = %21
  %27 = load ptr, ptr %2, align 8, !tbaa !6
  %28 = getelementptr inbounds nuw %struct.asn1_object_st, ptr %27, i32 0, i32 1
  %29 = load ptr, ptr %28, align 8, !tbaa !35
  call void @free(ptr noundef %29) #7
  br label %30

30:                                               ; preds = %26, %21
  %31 = load ptr, ptr %2, align 8, !tbaa !6
  %32 = getelementptr inbounds nuw %struct.asn1_object_st, ptr %31, i32 0, i32 1
  store ptr null, ptr %32, align 8, !tbaa !35
  %33 = load ptr, ptr %2, align 8, !tbaa !6
  %34 = getelementptr inbounds nuw %struct.asn1_object_st, ptr %33, i32 0, i32 0
  store ptr null, ptr %34, align 8, !tbaa !34
  br label %35

35:                                               ; preds = %30, %6
  %36 = load ptr, ptr %2, align 8, !tbaa !6
  %37 = getelementptr inbounds nuw %struct.asn1_object_st, ptr %36, i32 0, i32 5
  %38 = load i32, ptr %37, align 8, !tbaa !33
  %39 = and i32 %38, 8
  %40 = icmp ne i32 %39, 0
  br i1 %40, label %41, label %55

41:                                               ; preds = %35
  %42 = load ptr, ptr %2, align 8, !tbaa !6
  %43 = getelementptr inbounds nuw %struct.asn1_object_st, ptr %42, i32 0, i32 4
  %44 = load ptr, ptr %43, align 8, !tbaa !13
  %45 = icmp ne ptr %44, null
  br i1 %45, label %46, label %50

46:                                               ; preds = %41
  %47 = load ptr, ptr %2, align 8, !tbaa !6
  %48 = getelementptr inbounds nuw %struct.asn1_object_st, ptr %47, i32 0, i32 4
  %49 = load ptr, ptr %48, align 8, !tbaa !13
  call void @free(ptr noundef %49) #7
  br label %50

50:                                               ; preds = %46, %41
  %51 = load ptr, ptr %2, align 8, !tbaa !6
  %52 = getelementptr inbounds nuw %struct.asn1_object_st, ptr %51, i32 0, i32 4
  store ptr null, ptr %52, align 8, !tbaa !13
  %53 = load ptr, ptr %2, align 8, !tbaa !6
  %54 = getelementptr inbounds nuw %struct.asn1_object_st, ptr %53, i32 0, i32 3
  store i32 0, ptr %54, align 4, !tbaa !17
  br label %55

55:                                               ; preds = %50, %35
  %56 = load ptr, ptr %2, align 8, !tbaa !6
  %57 = getelementptr inbounds nuw %struct.asn1_object_st, ptr %56, i32 0, i32 5
  %58 = load i32, ptr %57, align 8, !tbaa !33
  %59 = and i32 %58, 1
  %60 = icmp ne i32 %59, 0
  br i1 %60, label %61, label %63

61:                                               ; preds = %55
  %62 = load ptr, ptr %2, align 8, !tbaa !6
  call void @free(ptr noundef %62) #7
  br label %63

63:                                               ; preds = %5, %61, %55
  ret void
}