; Function Attrs: mustprogress nounwind willreturn uwtable
define hidden void @ASN1_OBJECT_free(ptr noundef captures(address_is_null) %0) local_unnamed_addr #7 {
  %2 = icmp eq ptr %0, null
  br i1 %2, label %28, label %3

3:                                                ; preds = %1
  %4 = getelementptr inbounds nuw i8, ptr %0, i64 32
  %5 = load i32, ptr %4, align 8, !tbaa !25
  %6 = and i32 %5, 4
  %.not = icmp eq i32 %6, 0
  br i1 %.not, label %15, label %7

7:                                                ; preds = %3
  %8 = load ptr, ptr %0, align 8, !tbaa !26
  %.not18 = icmp eq ptr %8, null
  br i1 %.not18, label %10, label %9

9:                                                ; preds = %7
  tail call void @free(ptr noundef nonnull %8) #9
  br label %10

10:                                               ; preds = %9, %7
  %11 = getelementptr inbounds nuw i8, ptr %0, i64 8
  %12 = load ptr, ptr %11, align 8, !tbaa !27
  %.not19 = icmp eq ptr %12, null
  br i1 %.not19, label %14, label %13

13:                                               ; preds = %10
  tail call void @free(ptr noundef nonnull %12) #9
  br label %14

14:                                               ; preds = %13, %10
  tail call void @llvm.memset.p0.i64(ptr noundef nonnull align 8 dereferenceable(16) %0, i8 0, i64 16, i1 false)
  %.pre = load i32, ptr %4, align 8, !tbaa !25
  br label %15

15:                                               ; preds = %14, %3
  %16 = phi i32 [ %.pre, %14 ], [ %5, %3 ]
  %17 = and i32 %16, 8
  %.not20 = icmp eq i32 %17, 0
  br i1 %.not20, label %24, label %18

18:                                               ; preds = %15
  %19 = getelementptr inbounds nuw i8, ptr %0, i64 24
  %20 = load ptr, ptr %19, align 8, !tbaa !6
  %.not21 = icmp eq ptr %20, null
  br i1 %.not21, label %22, label %21

21:                                               ; preds = %18
  tail call void @free(ptr noundef nonnull %20) #9
  %.pre23.pre = load i32, ptr %4, align 8, !tbaa !25
  br label %22

22:                                               ; preds = %21, %18
  %.pre23 = phi i32 [ %.pre23.pre, %21 ], [ %16, %18 ]
  store ptr null, ptr %19, align 8, !tbaa !6
  %23 = getelementptr inbounds nuw i8, ptr %0, i64 20
  store i32 0, ptr %23, align 4, !tbaa !13
  br label %24

24:                                               ; preds = %22, %15
  %25 = phi i32 [ %.pre23, %22 ], [ %16, %15 ]
  %26 = and i32 %25, 1
  %.not22 = icmp eq i32 %26, 0
  br i1 %.not22, label %28, label %27

27:                                               ; preds = %24
  tail call void @free(ptr noundef nonnull %0) #9
  br label %28

28:                                               ; preds = %1, %27, %24
  ret void
}